; ModuleID = '29/11.c'
source_filename = "29/11.c"
target datalayout = "e-m:e-p270:32:32-p271:32:32-p272:64:64-i64:64-f80:128-n8:16:32:64-S128"
target triple = "x86_64-pc-linux-gnu"

@.str = private unnamed_addr constant [3 x i8] c"%d\00", align 1
@.str.1 = private unnamed_addr constant [7 x i8] c"%.3lf\0A\00", align 1

; Function Attrs: noinline nounwind uwtable
define dso_local i32 @main() #0 {
  %1 = alloca i32, align 4
  %2 = alloca i32, align 4
  %3 = alloca [500 x i32], align 16
  %4 = alloca double, align 8
  %5 = alloca i32, align 4
  %6 = alloca i32, align 4
  %7 = alloca [500 x i32], align 16
  %8 = alloca [500 x i32], align 16
  store i32 0, i32* %1, align 4
  %9 = call i32 (i8*, ...) @__isoc99_scanf(i8* getelementptr inbounds ([3 x i8], [3 x i8]* @.str, i64 0, i64 0), i32* %2)
  %10 = getelementptr inbounds [500 x i32], [500 x i32]* %7, i64 0, i64 0
  store i32 1, i32* %10, align 16
  %11 = getelementptr inbounds [500 x i32], [500 x i32]* %7, i64 0, i64 1
  store i32 2, i32* %11, align 4
  %12 = getelementptr inbounds [500 x i32], [500 x i32]* %8, i64 0, i64 0
  store i32 2, i32* %12, align 16
  %13 = getelementptr inbounds [500 x i32], [500 x i32]* %8, i64 0, i64 1
  store i32 3, i32* %13, align 4
  store i32 2, i32* %5, align 4
  br label %14

14:                                               ; preds = %46, %0
  %15 = load i32, i32* %5, align 4
  %16 = icmp slt i32 %15, 500
  br i1 %16, label %17, label %49

17:                                               ; preds = %14
  %18 = load i32, i32* %5, align 4
  %19 = sub nsw i32 %18, 1
  %20 = sext i32 %19 to i64
  %21 = getelementptr inbounds [500 x i32], [500 x i32]* %7, i64 0, i64 %20
  %22 = load i32, i32* %21, align 4
  %23 = load i32, i32* %5, align 4
  %24 = sub nsw i32 %23, 2
  %25 = sext i32 %24 to i64
  %26 = getelementptr inbounds [500 x i32], [500 x i32]* %7, i64 0, i64 %25
  %27 = load i32, i32* %26, align 4
  %28 = add nsw i32 %22, %27
  %29 = load i32, i32* %5, align 4
  %30 = sext i32 %29 to i64
  %31 = getelementptr inbounds [500 x i32], [500 x i32]* %7, i64 0, i64 %30
  store i32 %28, i32* %31, align 4
  %32 = load i32, i32* %5, align 4
  %33 = sub nsw i32 %32, 1
  %34 = sext i32 %33 to i64
  %35 = getelementptr inbounds [500 x i32], [500 x i32]* %8, i64 0, i64 %34
  %36 = load i32, i32* %35, align 4
  %37 = load i32, i32* %5, align 4
  %38 = sub nsw i32 %37, 2
  %39 = sext i32 %38 to i64
  %40 = getelementptr inbounds [500 x i32], [500 x i32]* %8, i64 0, i64 %39
  %41 = load i32, i32* %40, align 4
  %42 = add nsw i32 %36, %41
  %43 = load i32, i32* %5, align 4
  %44 = sext i32 %43 to i64
  %45 = getelementptr inbounds [500 x i32], [500 x i32]* %8, i64 0, i64 %44
  store i32 %42, i32* %45, align 4
  br label %46

46:                                               ; preds = %17
  %47 = load i32, i32* %5, align 4
  %48 = add nsw i32 %47, 1
  store i32 %48, i32* %5, align 4
  br label %14

49:                                               ; preds = %14
  store i32 0, i32* %5, align 4
  br label %50

50:                                               ; preds = %59, %49
  %51 = load i32, i32* %5, align 4
  %52 = load i32, i32* %2, align 4
  %53 = icmp slt i32 %51, %52
  br i1 %53, label %54, label %62

54:                                               ; preds = %50
  %55 = load i32, i32* %5, align 4
  %56 = sext i32 %55 to i64
  %57 = getelementptr inbounds [500 x i32], [500 x i32]* %3, i64 0, i64 %56
  %58 = call i32 (i8*, ...) @__isoc99_scanf(i8* getelementptr inbounds ([3 x i8], [3 x i8]* @.str, i64 0, i64 0), i32* %57)
  br label %59

59:                                               ; preds = %54
  %60 = load i32, i32* %5, align 4
  %61 = add nsw i32 %60, 1
  store i32 %61, i32* %5, align 4
  br label %50

62:                                               ; preds = %50
  store i32 0, i32* %5, align 4
  br label %63

63:                                               ; preds = %96, %62
  %64 = load i32, i32* %5, align 4
  %65 = load i32, i32* %2, align 4
  %66 = icmp slt i32 %64, %65
  br i1 %66, label %67, label %99

67:                                               ; preds = %63
  store double 0.000000e+00, double* %4, align 8
  store i32 0, i32* %6, align 4
  br label %68

68:                                               ; preds = %90, %67
  %69 = load i32, i32* %6, align 4
  %70 = load i32, i32* %5, align 4
  %71 = sext i32 %70 to i64
  %72 = getelementptr inbounds [500 x i32], [500 x i32]* %3, i64 0, i64 %71
  %73 = load i32, i32* %72, align 4
  %74 = icmp slt i32 %69, %73
  br i1 %74, label %75, label %93

75:                                               ; preds = %68
  %76 = load double, double* %4, align 8
  %77 = load i32, i32* %6, align 4
  %78 = sext i32 %77 to i64
  %79 = getelementptr inbounds [500 x i32], [500 x i32]* %8, i64 0, i64 %78
  %80 = load i32, i32* %79, align 4
  %81 = sitofp i32 %80 to double
  %82 = fmul double 1.000000e+00, %81
  %83 = load i32, i32* %6, align 4
  %84 = sext i32 %83 to i64
  %85 = getelementptr inbounds [500 x i32], [500 x i32]* %7, i64 0, i64 %84
  %86 = load i32, i32* %85, align 4
  %87 = sitofp i32 %86 to double
  %88 = fdiv double %82, %87
  %89 = fadd double %76, %88
  store double %89, double* %4, align 8
  br label %90

90:                                               ; preds = %75
  %91 = load i32, i32* %6, align 4
  %92 = add nsw i32 %91, 1
  store i32 %92, i32* %6, align 4
  br label %68

93:                                               ; preds = %68
  %94 = load double, double* %4, align 8
  %95 = call i32 (i8*, ...) @printf(i8* getelementptr inbounds ([7 x i8], [7 x i8]* @.str.1, i64 0, i64 0), double %94)
  br label %96

96:                                               ; preds = %93
  %97 = load i32, i32* %5, align 4
  %98 = add nsw i32 %97, 1
  store i32 %98, i32* %5, align 4
  br label %63

99:                                               ; preds = %63
  %100 = load i32, i32* %1, align 4
  ret i32 %100
}

declare dso_local i32 @__isoc99_scanf(i8*, ...) #1

declare dso_local i32 @printf(i8*, ...) #1


!llvm.module.flags = !{!0}
!llvm.ident = !{!1}

!0 = !{i32 1, !"wchar_size", i32 4}
!1 = !{!"clang version 10.0.0-4ubuntu1 "}
